
led.elf:     file format elf32-littleriscv


Disassembly of section .vectors:

00000000 <_stack_start-0x10000>:
  // external interrupts are handled by the same callback
  // until compiler supports IRQ routines
  .org 0x00
  .rept 31
  nop
  .endr
   0:	00000013          	nop
   4:	00000013          	nop
   8:	00000013          	nop
   c:	00000013          	nop
  10:	00000013          	nop
  14:	00000013          	nop
  18:	00000013          	nop
  1c:	00000013          	nop
  20:	00000013          	nop
  24:	00000013          	nop
  28:	00000013          	nop
  2c:	00000013          	nop
  30:	00000013          	nop
  34:	00000013          	nop
  38:	00000013          	nop
  3c:	00000013          	nop
  40:	00000013          	nop
  44:	00000013          	nop
  48:	00000013          	nop
  4c:	00000013          	nop
  50:	00000013          	nop
  54:	00000013          	nop
  58:	00000013          	nop
  5c:	00000013          	nop
  60:	00000013          	nop
  64:	00000013          	nop
  68:	00000013          	nop
  6c:	00000013          	nop
  70:	00000013          	nop
  74:	00000013          	nop
  78:	00000013          	nop
  jal x0, default_exc_handler
  7c:	0100006f          	j	8c <_stext>

  // reset vector
  .org 0x80
  jal x0, reset_handler
  80:	0100006f          	j	90 <reset_handler>

  // illegal instruction exception
  .org 0x84
  jal x0, default_exc_handler
  84:	0080006f          	j	8c <_stext>

  // ecall handler
  .org 0x88
  jal x0, default_exc_handler
  88:	0040006f          	j	8c <_stext>

Disassembly of section .text:

0000008c <_stext>:
  jal x0, default_exc_handler
  8c:	0000006f          	j	8c <_stext>

00000090 <reset_handler>:
  mv  x1, x0
  90:	00000093          	li	ra,0
  mv  x2, x1
  94:	8106                	mv	sp,ra
  mv  x3, x1
  96:	8186                	mv	gp,ra
  mv  x4, x1
  98:	8206                	mv	tp,ra
  mv  x5, x1
  9a:	8286                	mv	t0,ra
  mv  x6, x1
  9c:	8306                	mv	t1,ra
  mv  x7, x1
  9e:	8386                	mv	t2,ra
  mv  x8, x1
  a0:	8406                	mv	s0,ra
  mv  x9, x1
  a2:	8486                	mv	s1,ra
  mv x10, x1
  a4:	8506                	mv	a0,ra
  mv x11, x1
  a6:	8586                	mv	a1,ra
  mv x12, x1
  a8:	8606                	mv	a2,ra
  mv x13, x1
  aa:	8686                	mv	a3,ra
  mv x14, x1
  ac:	8706                	mv	a4,ra
  mv x15, x1
  ae:	8786                	mv	a5,ra
  mv x16, x1
  b0:	8806                	mv	a6,ra
  mv x17, x1
  b2:	8886                	mv	a7,ra
  mv x18, x1
  b4:	8906                	mv	s2,ra
  mv x19, x1
  b6:	8986                	mv	s3,ra
  mv x20, x1
  b8:	8a06                	mv	s4,ra
  mv x21, x1
  ba:	8a86                	mv	s5,ra
  mv x22, x1
  bc:	8b06                	mv	s6,ra
  mv x23, x1
  be:	8b86                	mv	s7,ra
  mv x24, x1
  c0:	8c06                	mv	s8,ra
  mv x25, x1
  c2:	8c86                	mv	s9,ra
  mv x26, x1
  c4:	8d06                	mv	s10,ra
  mv x27, x1
  c6:	8d86                	mv	s11,ra
  mv x28, x1
  c8:	8e06                	mv	t3,ra
  mv x29, x1
  ca:	8e86                	mv	t4,ra
  mv x30, x1
  cc:	8f06                	mv	t5,ra
  mv x31, x1
  ce:	8f86                	mv	t6,ra
  la   x2, _stack_start
  d0:	00010117          	auipc	sp,0x10
  d4:	f3010113          	addi	sp,sp,-208 # 10000 <_stack_start>

000000d8 <_start>:
  la x26, _bss_start
  d8:	17000d13          	li	s10,368
  la x27, _bss_end
  dc:	17000d93          	li	s11,368
  bge x26, x27, zero_loop_end
  e0:	01bd5763          	bge	s10,s11,ee <main_entry>

000000e4 <zero_loop>:
  sw x0, 0(x26)
  e4:	000d2023          	sw	zero,0(s10)
  addi x26, x26, 4
  e8:	0d11                	addi	s10,s10,4
  ble x26, x27, zero_loop
  ea:	ffaddde3          	bge	s11,s10,e4 <zero_loop>

000000ee <main_entry>:
  addi x10, x0, 0
  ee:	4501                	li	a0,0
  addi x11, x0, 0
  f0:	4581                	li	a1,0
  jal x1, main
  f2:	004000ef          	jal	ra,f6 <main>

000000f6 <main>:
int main(int argc, char **argv) {
  // The lowest four bits of the highest byte written to the memory region named
  // "stack" are connected to the LEDs of the board.
  volatile uint8_t *led1 = (volatile uint8_t *) 0x0000c010;
  volatile uint8_t *led2 = (volatile uint8_t *) 0x0000c020;
  *led1 = 0x05;
  f6:	67b1                	lui	a5,0xc
  f8:	4715                	li	a4,5
  fa:	00e78823          	sb	a4,16(a5) # c010 <_stack_len+0x8010>
  asm volatile(
  fe:	005f66b7          	lui	a3,0x5f6
  *led2 = 0x01;
 102:	4705                	li	a4,1
 104:	02e78023          	sb	a4,32(a5)
  asm volatile(
 108:	e1068693          	addi	a3,a3,-496 # 5f5e10 <_stack_start+0x5e5e10>
  
  while (1) {
    usleep(1000 * 1000); // 1000 ms
    if(*led1 == 0x01){
 10c:	4605                	li	a2,1
	    *led1 = 0x08;
 10e:	45a1                	li	a1,8
  asm volatile(
 110:	8736                	mv	a4,a3
 112:	0001                	nop
 114:	0001                	nop
 116:	0001                	nop
 118:	0001                	nop
 11a:	177d                	addi	a4,a4,-1
 11c:	fb7d                	bnez	a4,112 <main+0x1c>
    if(*led1 == 0x01){
 11e:	0107c703          	lbu	a4,16(a5)
 122:	0ff77713          	andi	a4,a4,255
 126:	02c71563          	bne	a4,a2,150 <main+0x5a>
	    *led1 = 0x08;
 12a:	00b78823          	sb	a1,16(a5)
	    if(*led2 == 0x08){
 12e:	0207c703          	lbu	a4,32(a5)
 132:	0ff77713          	andi	a4,a4,255
 136:	00b71563          	bne	a4,a1,140 <main+0x4a>
		    *led2 = 0x01;
 13a:	02c78023          	sb	a2,32(a5)
 13e:	bfc9                	j	110 <main+0x1a>
	    }
	    else{
		    *led2 = *led2 << 1;
 140:	0207c703          	lbu	a4,32(a5)
 144:	0706                	slli	a4,a4,0x1
 146:	0fe77713          	andi	a4,a4,254
 14a:	02e78023          	sb	a4,32(a5)
 14e:	b7c9                	j	110 <main+0x1a>
	    }
    }
    else{
	    *led1 = *led1 >> 1;
 150:	0107c703          	lbu	a4,16(a5)
 154:	0ff77713          	andi	a4,a4,255
 158:	8305                	srli	a4,a4,0x1
 15a:	00e78823          	sb	a4,16(a5)
 15e:	bf4d                	j	110 <main+0x1a>

00000160 <__CTOR_LIST__>:
	...

00000168 <__CTOR_END__>:
	...
